(dp0
Vtear_rate
p1
(dp2
Vreduced
p3
Vno lenses
p4
sVnormal
p5
(dp6
Vastigmatic
p7
(dp8
Vyes
p9
(dp10
Vprescript
p11
(dp12
Vmyope
p13
Vhard
p14
sVhyper
p15
(dp16
Vage
p17
(dp18
Vpresbyopic
p19
Vno lenses
p20
sVpre
p21
Vno lenses
p22
sVyoung
p23
Vhard
p24
sssssVno
p25
(dp26
g17
(dp27
Vpresbyopic
p28
(dp29
g11
(dp30
Vmyope
p31
Vno lenses
p32
sVhyper
p33
Vsoft
p34
sssVpre
p35
Vsoft
p36
sVyoung
p37
Vsoft
p38
ssssss.